target datalayout = "e-m:e-p270:32:32-p271:32:32-p272:64:64-i64:64-i128:128-f80:128-n8:16:32:64-S128"
target triple = "x86_64-pc-linux-gnu"

%struct.GDBUserState = type { i32, ptr, i32, i8, [16 x i64], i8, i32, [2 x i32], i32, i32, [128 x i8], i64 }
%struct.GDBState = type { i8, ptr, ptr, ptr, i32, [4096 x i8], i32, i32, i32, ptr, i32, i8, ptr, i32, ptr, ptr, i32, i32, i8 }
%union.CPUTailQ = type { %struct.QTailQLink }
%struct.QTailQLink = type { ptr, ptr }
%struct.CPUState = type { %struct.DeviceState, ptr, i32, ptr, i32, i8, i8, ptr, i8, i8, i8, i8, i8, i8, i8, i8, i32, i32, i32, i32, i64, i64, i64, [1 x %struct.__jmp_buf_tag], %struct.QemuMutex, %struct.anon.0, ptr, i32, i32, ptr, ptr, ptr, ptr, i32, i32, %union.anon, %union.anon.1, %union.anon.2, ptr, ptr, i64, i32, ptr, ptr, ptr, i32, i64, i32, i8, %struct.QemuLockCnt, ptr, i32, i32, i32, i32, i32, ptr, i8, i64, i8, i8, ptr, [0 x i8], %struct.CPUNegativeOffsetState }
%struct.DeviceState = type { %struct.Object, ptr, ptr, i8, i8, i64, i32, i8, ptr, %struct.NamedGPIOListHead, %struct.NamedClockListHead, %struct.BusStateHead, i32, i32, i32, %struct.ResettableState, ptr, %struct.MemReentrancyGuard }
%struct.Object = type { ptr, ptr, ptr, i32, ptr }
%struct.NamedGPIOListHead = type { ptr }
%struct.NamedClockListHead = type { ptr }
%struct.BusStateHead = type { ptr }
%struct.ResettableState = type { i32, i8, i8 }
%struct.MemReentrancyGuard = type { i8 }
%struct.__jmp_buf_tag = type { [8 x i64], i32, %struct.__sigset_t }
%struct.__sigset_t = type { [16 x i64] }
%struct.QemuMutex = type { %union.pthread_mutex_t, i8 }
%union.pthread_mutex_t = type { %struct.__pthread_mutex_s }
%struct.__pthread_mutex_s = type { i32, i32, i32, i32, i32, i16, i16, %struct.__pthread_internal_list }
%struct.__pthread_internal_list = type { ptr, ptr }
%struct.anon.0 = type { ptr, ptr }
%union.anon = type { %struct.QTailQLink }
%union.anon.1 = type { %struct.QTailQLink }
%union.anon.2 = type { %struct.QTailQLink }
%struct.QemuLockCnt = type { i32 }
%struct.CPUNegativeOffsetState = type { %struct.CPUTLB, ptr, i64, i64, %union.IcountDecr, i8 }
%struct.CPUTLB = type { %struct.CPUTLBCommon, [16 x %struct.CPUTLBDesc], [16 x %struct.CPUTLBDescFast] }
%struct.CPUTLBCommon = type { %struct.QemuSpin, i16, i64, i64, i64 }
%struct.QemuSpin = type { i32 }
%struct.CPUTLBDesc = type { i64, i64, i64, i64, i64, i64, [8 x %union.CPUTLBEntry], [8 x %struct.CPUTLBEntryFull], ptr }
%union.CPUTLBEntry = type { %struct.anon.3 }
%struct.anon.3 = type { i64, i64, i64, i64 }
%struct.CPUTLBEntryFull = type { i64, i64, %struct.MemTxAttrs, i8, i8, i8, [3 x i8], %union.anon.4 }
%struct.MemTxAttrs = type { i32, i8, i8, i16 }
%union.anon.4 = type { %struct.anon.5 }
%struct.anon.5 = type { i8, i8, i8 }
%struct.CPUTLBDescFast = type { i64, ptr }
%union.IcountDecr = type { i32 }
%struct.timeval = type { i64, i64 }

@gdbserver_user_state = internal global %struct.GDBUserState zeroinitializer, align 8
@gdbserver_state = external global %struct.GDBState, align 8
@cpus_queue = external global %union.CPUTailQ, align 8
@trace_events_enabled_count = external global i32, align 4
@message_with_timestamp = external global i8, align 1
@qemu_loglevel = external global i32, align 4
@_TRACE_GDBSTUB_OP_STEPPING_DSTATE = external global i16, align 2
@.str.39 = private unnamed_addr constant [50 x i8] c"%d@%zu.%06zu:gdbstub_op_stepping Stepping CPU %d\0A\00", align 1
@.str.40 = private unnamed_addr constant [37 x i8] c"gdbstub_op_stepping Stepping CPU %d\0A\00", align 1

; Function Attrs: inlinehint nounwind sspstrong uwtable
define internal zeroext i1 @qemu_loglevel_mask(i32 noundef %0) #6 {
  %2 = alloca i32, align 4
  store i32 %0, ptr %2, align 4
  %3 = load i32, ptr @qemu_loglevel, align 4
  %4 = load i32, ptr %2, align 4
  %5 = and i32 %3, %4
  %6 = icmp ne i32 %5, 0
  ret i1 %6
}

; Function Attrs: inlinehint nounwind sspstrong uwtable
define internal void @_nocheck__trace_gdbstub_op_stepping(i32 noundef %0) #6 {
  %2 = alloca i32, align 4
  %3 = alloca %struct.timeval, align 8
  store i32 %0, ptr %2, align 4
  %4 = load i32, ptr @trace_events_enabled_count, align 4
  %5 = icmp ne i32 %4, 0
  %6 = xor i1 %5, true
  %7 = xor i1 %6, true
  %8 = zext i1 %7 to i32
  %9 = sext i32 %8 to i64
  %10 = call i64 @llvm.expect.i64(i64 %9, i64 0)
  %11 = icmp ne i64 %10, 0
  br i1 %11, label %12, label %32

12:                                               ; preds = %1
  %13 = load i16, ptr @_TRACE_GDBSTUB_OP_STEPPING_DSTATE, align 2
  %14 = zext i16 %13 to i32
  %15 = icmp ne i32 %14, 0
  br i1 %15, label %16, label %32

16:                                               ; preds = %12
  %17 = call zeroext i1 @qemu_loglevel_mask(i32 noundef 32768)
  br i1 %17, label %18, label %32

18:                                               ; preds = %16
  %19 = load i8, ptr @message_with_timestamp, align 1, !range !7, !noundef !8
  %20 = trunc i8 %19 to i1
  br i1 %20, label %21, label %29

21:                                               ; preds = %18
  call void @llvm.lifetime.start.p0(i64 16, ptr %3) #14
  call void @llvm.memset.p0.i64(ptr align 8 %3, i8 0, i64 16, i1 false), !annotation !4
  %22 = call i32 @gettimeofday(ptr noundef %3, ptr noundef null) #14
  %23 = call i32 @qemu_get_thread_id()
  %24 = getelementptr inbounds nuw %struct.timeval, ptr %3, i32 0, i32 0
  %25 = load i64, ptr %24, align 8
  %26 = getelementptr inbounds nuw %struct.timeval, ptr %3, i32 0, i32 1
  %27 = load i64, ptr %26, align 8
  %28 = load i32, ptr %2, align 4
  call void (ptr, ...) @qemu_log(ptr noundef @.str.39, i32 noundef %23, i64 noundef %25, i64 noundef %27, i32 noundef %28)
  call void @llvm.lifetime.end.p0(i64 16, ptr %3) #14
  br label %31

29:                                               ; preds = %18
  %30 = load i32, ptr %2, align 4
  call void (ptr, ...) @qemu_log(ptr noundef @.str.40, i32 noundef %30)
  br label %31

31:                                               ; preds = %29, %21
  br label %32

32:                                               ; preds = %31, %16, %12, %1
  ret void
}

; Function Attrs: inlinehint nounwind sspstrong uwtable
define internal void @trace_gdbstub_op_stepping(i32 noundef %0) #6 {
  %2 = alloca i32, align 4
  store i32 %0, ptr %2, align 4
  %3 = load i32, ptr %2, align 4
  call void @_nocheck__trace_gdbstub_op_stepping(i32 noundef %3)
  ret void
}

; Function Attrs: nounwind sspstrong uwtable
define dso_local i32 @gdb_continue_partial(ptr noundef %0) #0 {
  %2 = alloca ptr, align 8
  %3 = alloca ptr, align 8
  %4 = alloca i32, align 4
  %5 = alloca ptr, align 8
  %6 = alloca ptr, align 8
  %7 = alloca ptr, align 8
  %8 = alloca ptr, align 8
  store ptr %0, ptr %2, align 8
  call void @llvm.lifetime.start.p0(i64 8, ptr %3) #14
  store ptr null, ptr %3, align 8, !annotation !4
  call void @llvm.lifetime.start.p0(i64 4, ptr %4) #14
  store i32 0, ptr %4, align 4
  br label %9

9:                                                ; preds = %1
  br i1 false, label %10, label %11

10:                                               ; preds = %9
  call void @qemu_build_not_reached_always() #17, !srcloc !21
  unreachable

11:                                               ; preds = %9
  call void @llvm.lifetime.start.p0(i64 8, ptr %5) #14
  store ptr null, ptr %5, align 8, !annotation !4
  %12 = load atomic i64, ptr @cpus_queue monotonic, align 8
  store i64 %12, ptr %5, align 8
  call void asm sideeffect "", "~{memory},~{dirflag},~{fpsr},~{flags}"() #14, !srcloc !22
  %13 = load ptr, ptr %5, align 8
  store ptr %13, ptr %6, align 8
  call void @llvm.lifetime.end.p0(i64 8, ptr %5) #14
  %14 = load ptr, ptr %6, align 8
  store ptr %14, ptr %3, align 8
  br label %15

15:                                               ; preds = %38, %11
  %16 = load ptr, ptr %3, align 8
  %17 = icmp ne ptr %16, null
  br i1 %17, label %18, label %44

18:                                               ; preds = %15
  %19 = load ptr, ptr %2, align 8
  %20 = load ptr, ptr %3, align 8
  %21 = getelementptr inbounds nuw %struct.CPUState, ptr %20, i32 0, i32 51
  %22 = load i32, ptr %21, align 16
  %23 = sext i32 %22 to i64
  %24 = getelementptr inbounds i8, ptr %19, i64 %23
  %25 = load i8, ptr %24, align 1
  %26 = sext i8 %25 to i32
  %27 = icmp eq i32 %26, 115
  br i1 %27, label %28, label %34

28:                                               ; preds = %18
  %29 = load ptr, ptr %3, align 8
  %30 = getelementptr inbounds nuw %struct.CPUState, ptr %29, i32 0, i32 51
  %31 = load i32, ptr %30, align 16
  call void @trace_gdbstub_op_stepping(i32 noundef %31)
  %32 = load ptr, ptr %3, align 8
  %33 = load i32, ptr getelementptr inbounds nuw (%struct.GDBState, ptr @gdbserver_state, i32 0, i32 16), align 8
  call void @cpu_single_step(ptr noundef %32, i32 noundef %33)
  br label %34

34:                                               ; preds = %28, %18
  br label %35

35:                                               ; preds = %34
  br label %36

36:                                               ; preds = %35
  br i1 false, label %37, label %38

37:                                               ; preds = %36
  call void @qemu_build_not_reached_always() #17, !srcloc !23
  unreachable

38:                                               ; preds = %36
  call void @llvm.lifetime.start.p0(i64 8, ptr %7) #14
  store ptr null, ptr %7, align 8, !annotation !4
  %39 = load ptr, ptr %3, align 8
  %40 = getelementptr inbounds nuw %struct.CPUState, ptr %39, i32 0, i32 35
  %41 = load atomic i64, ptr %40 monotonic, align 16
  store i64 %41, ptr %7, align 8
  call void asm sideeffect "", "~{memory},~{dirflag},~{fpsr},~{flags}"() #14, !srcloc !24
  %42 = load ptr, ptr %7, align 8
  store ptr %42, ptr %8, align 8
  call void @llvm.lifetime.end.p0(i64 8, ptr %7) #14
  %43 = load ptr, ptr %8, align 8
  store ptr %43, ptr %3, align 8
  br label %15, !llvm.loop !25

44:                                               ; preds = %15
  store i32 1, ptr getelementptr inbounds nuw (%struct.GDBUserState, ptr @gdbserver_user_state, i32 0, i32 2), align 8
  %45 = load i32, ptr %4, align 4
  call void @llvm.lifetime.end.p0(i64 4, ptr %4) #14
  call void @llvm.lifetime.end.p0(i64 8, ptr %3) #14
  ret i32 %45
}