; Function Attrs: nounwind sspstrong uwtable
define dso_local noundef i32 @gdb_continue_partial(ptr noundef readonly captures(none) %0) local_unnamed_addr #0 {
  %2 = alloca %struct.timeval, align 8
  %3 = load atomic i64, ptr @cpus_queue monotonic, align 8
  tail call void asm sideeffect "", "~{memory},~{dirflag},~{fpsr},~{flags}"() #16, !srcloc !22
  %.not11 = icmp eq i64 %3, 0
  br i1 %.not11, label %._crit_edge, label %.lr.ph

.lr.ph:                                           ; preds = %1
  %4 = getelementptr inbounds nuw i8, ptr %2, i64 8
  br label %5

5:                                                ; preds = %.lr.ph, %29
  %.012.in = phi i64 [ %3, %.lr.ph ], [ %31, %29 ]
  %.012 = inttoptr i64 %.012.in to ptr
  %6 = getelementptr inbounds nuw i8, ptr %.012, i64 704
  %7 = load i32, ptr %6, align 16
  %8 = sext i32 %7 to i64
  %9 = getelementptr inbounds i8, ptr %0, i64 %8
  %10 = load i8, ptr %9, align 1
  %11 = icmp eq i8 %10, 115
  br i1 %11, label %12, label %29

12:                                               ; preds = %5
  %13 = load i32, ptr @trace_events_enabled_count, align 4
  %.not.i.i = icmp eq i32 %13, 0
  br i1 %.not.i.i, label %trace_gdbstub_op_stepping.exit, label %14, !prof !9

14:                                               ; preds = %12
  %15 = load i16, ptr @_TRACE_GDBSTUB_OP_STEPPING_DSTATE, align 2
  %.not2.i.i = icmp eq i16 %15, 0
  br i1 %.not2.i.i, label %trace_gdbstub_op_stepping.exit, label %16

16:                                               ; preds = %14
  %17 = load i32, ptr @qemu_loglevel, align 4
  %18 = and i32 %17, 32768
  %.not3.i.i = icmp eq i32 %18, 0
  br i1 %.not3.i.i, label %trace_gdbstub_op_stepping.exit, label %19

19:                                               ; preds = %16
  %20 = load i8, ptr @message_with_timestamp, align 1, !range !7, !noundef !8
  %21 = trunc nuw i8 %20 to i1
  br i1 %21, label %22, label %27

22:                                               ; preds = %19
  call void @llvm.lifetime.start.p0(i64 16, ptr nonnull %2) #16
  call void @llvm.memset.p0.i64(ptr noundef nonnull align 8 dereferenceable(16) %2, i8 0, i64 16, i1 false), !annotation !4
  %23 = call i32 @gettimeofday(ptr noundef nonnull %2, ptr noundef null) #16
  %24 = tail call i32 @qemu_get_thread_id() #16
  %25 = load i64, ptr %2, align 8
  %26 = load i64, ptr %4, align 8
  tail call void (ptr, ...) @qemu_log(ptr noundef nonnull @.str.39, i32 noundef %24, i64 noundef %25, i64 noundef %26, i32 noundef %7) #16
  call void @llvm.lifetime.end.p0(i64 16, ptr nonnull %2) #16
  br label %trace_gdbstub_op_stepping.exit

27:                                               ; preds = %19
  tail call void (ptr, ...) @qemu_log(ptr noundef nonnull @.str.40, i32 noundef %7) #16
  br label %trace_gdbstub_op_stepping.exit

trace_gdbstub_op_stepping.exit:                   ; preds = %12, %14, %16, %22, %27
  %28 = load i32, ptr getelementptr inbounds nuw (i8, ptr @gdbserver_state, i64 4192), align 8
  tail call void @cpu_single_step(ptr noundef nonnull %.012, i32 noundef %28) #16
  br label %29

29:                                               ; preds = %5, %trace_gdbstub_op_stepping.exit
  %30 = getelementptr inbounds nuw i8, ptr %.012, i64 560
  %31 = load atomic i64, ptr %30 monotonic, align 16
  tail call void asm sideeffect "", "~{memory},~{dirflag},~{fpsr},~{flags}"() #16, !srcloc !23
  %.not = icmp eq i64 %31, 0
  br i1 %.not, label %._crit_edge, label %5, !llvm.loop !24

._crit_edge:                                      ; preds = %29, %1
  store i32 1, ptr getelementptr inbounds nuw (i8, ptr @gdbserver_user_state, i64 16), align 8
  ret i32 0
}